target datalayout = "e-m:e-p270:32:32-p271:32:32-p272:64:64-i64:64-i128:128-f80:128-n8:16:32:64-S128"
target triple = "x86_64-unknown-linux-gnu"

%"struct.std::_Vector_base.704" = type { %"struct.std::_Vector_base<grpc_core::(anonymous namespace)::XdsServerConfigFetcher::ListenerWatcher::FilterChainMatchManager::XdsServerConfigSelector::VirtualHost, std::allocator<grpc_core::(anonymous namespace)::XdsServerConfigFetcher::ListenerWatcher::FilterChainMatchManager::XdsServerConfigSelector::VirtualHost>>::_Vector_impl" }
%"struct.std::_Vector_base<grpc_core::(anonymous namespace)::XdsServerConfigFetcher::ListenerWatcher::FilterChainMatchManager::XdsServerConfigSelector::VirtualHost, std::allocator<grpc_core::(anonymous namespace)::XdsServerConfigFetcher::ListenerWatcher::FilterChainMatchManager::XdsServerConfigSelector::VirtualHost>>::_Vector_impl" = type { %"struct.std::_Vector_base<grpc_core::(anonymous namespace)::XdsServerConfigFetcher::ListenerWatcher::FilterChainMatchManager::XdsServerConfigSelector::VirtualHost, std::allocator<grpc_core::(anonymous namespace)::XdsServerConfigFetcher::ListenerWatcher::FilterChainMatchManager::XdsServerConfigSelector::VirtualHost>>::_Vector_impl_data" }
%"struct.std::_Vector_base<grpc_core::(anonymous namespace)::XdsServerConfigFetcher::ListenerWatcher::FilterChainMatchManager::XdsServerConfigSelector::VirtualHost, std::allocator<grpc_core::(anonymous namespace)::XdsServerConfigFetcher::ListenerWatcher::FilterChainMatchManager::XdsServerConfigSelector::VirtualHost>>::_Vector_impl_data" = type { ptr, ptr, ptr }
%"class.grpc_core::(anonymous namespace)::XdsServerConfigFetcher::ListenerWatcher::FilterChainMatchManager::XdsServerConfigSelector::VirtualHostListIterator" = type { %"class.grpc_core::XdsRouting::VirtualHostListIterator", ptr }
%"class.grpc_core::XdsRouting::VirtualHostListIterator" = type { ptr }

; Function Attrs: mustprogress nounwind uwtable
define internal noundef i64 @_ZNKSt6vectorIN9grpc_core12_GLOBAL__N_122XdsServerConfigFetcher15ListenerWatcher23FilterChainMatchManager23XdsServerConfigSelector11VirtualHostESaIS6_EE4sizeEv(ptr noundef nonnull align 8 dereferenceable(24) %this) #5 align 2 {
entry:
  %this.addr = alloca ptr, align 8
  store ptr %this, ptr %this.addr, align 8
  %this1 = load ptr, ptr %this.addr, align 8
  %_M_impl = getelementptr inbounds %"struct.std::_Vector_base.704", ptr %this1, i32 0, i32 0
  %_M_finish = getelementptr inbounds %"struct.std::_Vector_base<grpc_core::(anonymous namespace)::XdsServerConfigFetcher::ListenerWatcher::FilterChainMatchManager::XdsServerConfigSelector::VirtualHost, std::allocator<grpc_core::(anonymous namespace)::XdsServerConfigFetcher::ListenerWatcher::FilterChainMatchManager::XdsServerConfigSelector::VirtualHost>>::_Vector_impl_data", ptr %_M_impl, i32 0, i32 1
  %0 = load ptr, ptr %_M_finish, align 8
  %_M_impl2 = getelementptr inbounds %"struct.std::_Vector_base.704", ptr %this1, i32 0, i32 0
  %_M_start = getelementptr inbounds %"struct.std::_Vector_base<grpc_core::(anonymous namespace)::XdsServerConfigFetcher::ListenerWatcher::FilterChainMatchManager::XdsServerConfigSelector::VirtualHost, std::allocator<grpc_core::(anonymous namespace)::XdsServerConfigFetcher::ListenerWatcher::FilterChainMatchManager::XdsServerConfigSelector::VirtualHost>>::_Vector_impl_data", ptr %_M_impl2, i32 0, i32 0
  %1 = load ptr, ptr %_M_start, align 8
  %sub.ptr.lhs.cast = ptrtoint ptr %0 to i64
  %sub.ptr.rhs.cast = ptrtoint ptr %1 to i64
  %sub.ptr.sub = sub i64 %sub.ptr.lhs.cast, %sub.ptr.rhs.cast
  %sub.ptr.div = sdiv exact i64 %sub.ptr.sub, 48
  ret i64 %sub.ptr.div
}

; Function Attrs: mustprogress nounwind uwtable
define internal noundef i64 @_ZNK9grpc_core12_GLOBAL__N_122XdsServerConfigFetcher15ListenerWatcher23FilterChainMatchManager23XdsServerConfigSelector23VirtualHostListIterator4SizeEv(ptr noundef nonnull align 8 dereferenceable(16) %this) unnamed_addr #5 align 2 {
entry:
  %this.addr = alloca ptr, align 8
  store ptr %this, ptr %this.addr, align 8
  %this1 = load ptr, ptr %this.addr, align 8
  %virtual_hosts_ = getelementptr inbounds %"class.grpc_core::(anonymous namespace)::XdsServerConfigFetcher::ListenerWatcher::FilterChainMatchManager::XdsServerConfigSelector::VirtualHostListIterator", ptr %this1, i32 0, i32 1
  %0 = load ptr, ptr %virtual_hosts_, align 8
  %call = call noundef i64 @_ZNKSt6vectorIN9grpc_core12_GLOBAL__N_122XdsServerConfigFetcher15ListenerWatcher23FilterChainMatchManager23XdsServerConfigSelector11VirtualHostESaIS6_EE4sizeEv(ptr noundef nonnull align 8 dereferenceable(24) %0) #3
  ret i64 %call
}